; Function Attrs: nounwind uwtable
define i32 @Lpk_ComputeSets(ptr noundef %0, ptr noundef initializes((4, 8)) %1) local_unnamed_addr #0 {
  %3 = getelementptr inbounds nuw i8, ptr %1, i64 4
  store i32 0, ptr %3, align 4, !tbaa !20
  %4 = load i32, ptr %1, align 8, !tbaa !22
  %5 = icmp eq i32 %4, 0
  %6 = getelementptr inbounds nuw i8, ptr %1, i64 8
  %7 = load ptr, ptr %6, align 8, !tbaa !23
  br i1 %5, label %8, label %Vec_IntPush.exit

8:                                                ; preds = %2
  %.not9.i.i = icmp eq ptr %7, null
  br i1 %.not9.i.i, label %11, label %9

9:                                                ; preds = %8
  %10 = tail call dereferenceable_or_null(64) ptr @realloc(ptr noundef nonnull %7, i64 noundef 64) #13
  %.pre.pre = load i32, ptr %3, align 4, !tbaa !20
  br label %Vec_IntGrow.exit.i

11:                                               ; preds = %8
  %12 = tail call noalias dereferenceable_or_null(64) ptr @malloc(i64 noundef 64) #14
  br label %Vec_IntGrow.exit.i

Vec_IntGrow.exit.i:                               ; preds = %11, %9
  %.pre = phi i32 [ %.pre.pre, %9 ], [ 0, %11 ]
  %13 = phi ptr [ %10, %9 ], [ %12, %11 ]
  store ptr %13, ptr %6, align 8, !tbaa !23
  store i32 16, ptr %1, align 8, !tbaa !22
  br label %Vec_IntPush.exit

Vec_IntPush.exit:                                 ; preds = %2, %Vec_IntGrow.exit.i
  %14 = phi i32 [ %.pre, %Vec_IntGrow.exit.i ], [ 0, %2 ]
  %15 = phi ptr [ %13, %Vec_IntGrow.exit.i ], [ %7, %2 ]
  %16 = add nsw i32 %14, 1
  store i32 %16, ptr %3, align 4, !tbaa !20
  %17 = sext i32 %14 to i64
  %18 = getelementptr inbounds i32, ptr %15, i64 %17
  store i32 0, ptr %18, align 4, !tbaa !15
  %19 = getelementptr inbounds nuw i8, ptr %0, i64 6
  %20 = load i16, ptr %19, align 2, !tbaa !26
  %21 = lshr i16 %20, 1
  %22 = load i16, ptr %0, align 8, !tbaa !3
  %23 = icmp uge i16 %21, %22
  tail call void @llvm.assume(i1 %23)
  %24 = getelementptr inbounds nuw i8, ptr %0, i64 24
  %25 = load ptr, ptr %24, align 8, !tbaa !11
  %narrow.i = sub nuw nsw i16 %21, %22
  %26 = zext nneg i16 %narrow.i to i64
  %27 = getelementptr inbounds nuw ptr, ptr %25, i64 %26
  %28 = load ptr, ptr %27, align 8, !tbaa !12
  %29 = load i32, ptr %28, align 4
  %30 = and i32 %29, 448
  switch i32 %30, label %54 [
    i32 64, label %.critedge
    i32 128, label %Kit_DsdNtkRoot.exit31
  ]

Kit_DsdNtkRoot.exit31:                            ; preds = %Vec_IntPush.exit
  %31 = getelementptr inbounds nuw i8, ptr %28, i64 4
  %32 = load i16, ptr %31, align 4, !tbaa !14
  %33 = lshr i16 %32, 1
  %34 = zext nneg i16 %33 to i32
  %35 = shl nuw i32 1, %34
  %36 = load i32, ptr %3, align 4, !tbaa !20
  %37 = load i32, ptr %1, align 8, !tbaa !22
  %38 = icmp eq i32 %36, %37
  br i1 %38, label %39, label %Vec_IntPush.exit38

39:                                               ; preds = %Kit_DsdNtkRoot.exit31
  %40 = icmp slt i32 %36, 16
  br i1 %40, label %Vec_IntGrow.exit.i37, label %43

Vec_IntGrow.exit.i37:                             ; preds = %39
  %41 = getelementptr inbounds nuw i8, ptr %1, i64 8
  %42 = tail call dereferenceable_or_null(64) ptr @realloc(ptr noundef nonnull %15, i64 noundef 64) #13
  store ptr %42, ptr %41, align 8, !tbaa !23
  br label %Vec_IntPush.exit38.sink.split

43:                                               ; preds = %39
  %44 = shl nuw nsw i32 %36, 1
  %45 = getelementptr inbounds nuw i8, ptr %1, i64 8
  %46 = zext nneg i32 %44 to i64
  %47 = shl nuw nsw i64 %46, 2
  %48 = tail call ptr @realloc(ptr noundef nonnull %15, i64 noundef %47) #13
  store ptr %48, ptr %45, align 8, !tbaa !23
  br label %Vec_IntPush.exit38.sink.split

Vec_IntPush.exit38.sink.split:                    ; preds = %43, %Vec_IntGrow.exit.i37
  %.sink = phi i32 [ 16, %Vec_IntGrow.exit.i37 ], [ %44, %43 ]
  %.ph = phi ptr [ %42, %Vec_IntGrow.exit.i37 ], [ %48, %43 ]
  store i32 %.sink, ptr %1, align 8, !tbaa !22
  br label %Vec_IntPush.exit38

Vec_IntPush.exit38:                               ; preds = %Vec_IntPush.exit38.sink.split, %Kit_DsdNtkRoot.exit31
  %49 = phi ptr [ %15, %Kit_DsdNtkRoot.exit31 ], [ %.ph, %Vec_IntPush.exit38.sink.split ]
  %50 = load i32, ptr %3, align 4, !tbaa !20
  %51 = add nsw i32 %50, 1
  store i32 %51, ptr %3, align 4, !tbaa !20
  %52 = sext i32 %50 to i64
  %53 = getelementptr inbounds i32, ptr %49, i64 %52
  store i32 %35, ptr %53, align 4, !tbaa !15
  br label %.critedge

54:                                               ; preds = %Vec_IntPush.exit
  %55 = zext i16 %20 to i32
  %56 = tail call i32 @Lpk_ComputeSets_rec(ptr noundef nonnull %0, i32 noundef %55, ptr noundef nonnull %1)
  %57 = load i32, ptr %3, align 4, !tbaa !20
  %58 = load i32, ptr %1, align 8, !tbaa !22
  %59 = icmp eq i32 %57, %58
  br i1 %59, label %60, label %.Vec_IntGrow.exit10_crit_edge.i39

.Vec_IntGrow.exit10_crit_edge.i39:                ; preds = %54
  %.phi.trans.insert.i40 = getelementptr inbounds nuw i8, ptr %1, i64 8
  %.pre.i41 = load ptr, ptr %.phi.trans.insert.i40, align 8, !tbaa !23
  br label %Vec_IntPush.exit45

60:                                               ; preds = %54
  %61 = icmp slt i32 %57, 16
  br i1 %61, label %62, label %70

62:                                               ; preds = %60
  %63 = getelementptr inbounds nuw i8, ptr %1, i64 8
  %64 = load ptr, ptr %63, align 8, !tbaa !23
  %.not9.i.i43 = icmp eq ptr %64, null
  br i1 %.not9.i.i43, label %67, label %65

65:                                               ; preds = %62
  %66 = tail call dereferenceable_or_null(64) ptr @realloc(ptr noundef nonnull %64, i64 noundef 64) #13
  br label %Vec_IntGrow.exit.i44

67:                                               ; preds = %62
  %68 = tail call noalias dereferenceable_or_null(64) ptr @malloc(i64 noundef 64) #14
  br label %Vec_IntGrow.exit.i44

Vec_IntGrow.exit.i44:                             ; preds = %67, %65
  %69 = phi ptr [ %66, %65 ], [ %68, %67 ]
  store ptr %69, ptr %63, align 8, !tbaa !23
  store i32 16, ptr %1, align 8, !tbaa !22
  br label %Vec_IntPush.exit45

70:                                               ; preds = %60
  %71 = shl nuw nsw i32 %57, 1
  %72 = getelementptr inbounds nuw i8, ptr %1, i64 8
  %73 = load ptr, ptr %72, align 8, !tbaa !23
  %.not9.i9.i42 = icmp eq ptr %73, null
  %74 = zext nneg i32 %71 to i64
  %75 = shl nuw nsw i64 %74, 2
  br i1 %.not9.i9.i42, label %78, label %76

76:                                               ; preds = %70
  %77 = tail call ptr @realloc(ptr noundef nonnull %73, i64 noundef %75) #13
  br label %80

78:                                               ; preds = %70
  %79 = tail call noalias ptr @malloc(i64 noundef %75) #14
  br label %80

80:                                               ; preds = %78, %76
  %81 = phi ptr [ %77, %76 ], [ %79, %78 ]
  store ptr %81, ptr %72, align 8, !tbaa !23
  store i32 %71, ptr %1, align 8, !tbaa !22
  br label %Vec_IntPush.exit45

Vec_IntPush.exit45:                               ; preds = %.Vec_IntGrow.exit10_crit_edge.i39, %Vec_IntGrow.exit.i44, %80
  %.val26 = phi ptr [ %.pre.i41, %.Vec_IntGrow.exit10_crit_edge.i39 ], [ %81, %80 ], [ %69, %Vec_IntGrow.exit.i44 ]
  %82 = load i32, ptr %3, align 4, !tbaa !20
  %83 = add nsw i32 %82, 1
  store i32 %83, ptr %3, align 4, !tbaa !20
  %84 = sext i32 %82 to i64
  %85 = getelementptr inbounds i32, ptr %.val26, i64 %84
  store i32 %56, ptr %85, align 4, !tbaa !15
  %.val47 = load i32, ptr %3, align 4, !tbaa !20
  %86 = icmp sgt i32 %.val47, 0
  br i1 %86, label %.lr.ph, label %.critedge

.lr.ph:                                           ; preds = %Vec_IntPush.exit45, %.lr.ph
  %indvars.iv = phi i64 [ %indvars.iv.next, %.lr.ph ], [ 0, %Vec_IntPush.exit45 ]
  %87 = getelementptr inbounds nuw i32, ptr %.val26, i64 %indvars.iv
  %88 = load i32, ptr %87, align 4, !tbaa !15
  %89 = xor i32 %88, -1
  %90 = and i32 %56, %89
  %91 = shl i32 %90, 16
  %92 = or i32 %91, %88
  store i32 %92, ptr %87, align 4, !tbaa !15
  %indvars.iv.next = add nuw nsw i64 %indvars.iv, 1
  %.val = load i32, ptr %3, align 4, !tbaa !20
  %93 = sext i32 %.val to i64
  %94 = icmp slt i64 %indvars.iv.next, %93
  br i1 %94, label %.lr.ph, label %.critedge, !llvm.loop !27

.critedge:                                        ; preds = %.lr.ph, %Vec_IntPush.exit, %Vec_IntPush.exit45, %Vec_IntPush.exit38
  %.025 = phi i32 [ %35, %Vec_IntPush.exit38 ], [ 0, %Vec_IntPush.exit ], [ %56, %Vec_IntPush.exit45 ], [ %56, %.lr.ph ]
  ret i32 %.025
}